target datalayout = "e-m:e-p270:32:32-p271:32:32-p272:64:64-i64:64-i128:128-f80:128-n8:16:32:64-S128"
target triple = "x86_64-pc-linux-gnu"

; Function Attrs: nounwind uwtable
define internal i32 @bn_rsa_fips186_5_aux_prime_max_sum_size_for_prob_primes(i32 noundef %0) #0 {
  %2 = alloca i32, align 4
  %3 = alloca i32, align 4
  store i32 %0, ptr %3, align 4, !tbaa !8
  %4 = load i32, ptr %3, align 4, !tbaa !8
  %5 = icmp sge i32 %4, 4096
  br i1 %5, label %6, label %7

6:                                                ; preds = %1
  store i32 2030, ptr %2, align 4
  br label %16

7:                                                ; preds = %1
  %8 = load i32, ptr %3, align 4, !tbaa !8
  %9 = icmp sge i32 %8, 3072
  br i1 %9, label %10, label %11

10:                                               ; preds = %7
  store i32 1518, ptr %2, align 4
  br label %16

11:                                               ; preds = %7
  %12 = load i32, ptr %3, align 4, !tbaa !8
  %13 = icmp sge i32 %12, 2048
  br i1 %13, label %14, label %15

14:                                               ; preds = %11
  store i32 1007, ptr %2, align 4
  br label %16

15:                                               ; preds = %11
  store i32 0, ptr %2, align 4
  br label %16

16:                                               ; preds = %15, %14, %10, %6
  %17 = load i32, ptr %2, align 4
  ret i32 %17
}

; Function Attrs: nounwind uwtable
define internal i32 @bn_rsa_fips186_5_aux_prime_MR_rounds(i32 noundef %0) #0 {
  %2 = alloca i32, align 4
  %3 = alloca i32, align 4
  store i32 %0, ptr %3, align 4, !tbaa !8
  %4 = load i32, ptr %3, align 4, !tbaa !8
  %5 = icmp sge i32 %4, 4096
  br i1 %5, label %6, label %7

6:                                                ; preds = %1
  store i32 44, ptr %2, align 4
  br label %16

7:                                                ; preds = %1
  %8 = load i32, ptr %3, align 4, !tbaa !8
  %9 = icmp sge i32 %8, 3072
  br i1 %9, label %10, label %11

10:                                               ; preds = %7
  store i32 41, ptr %2, align 4
  br label %16

11:                                               ; preds = %7
  %12 = load i32, ptr %3, align 4, !tbaa !8
  %13 = icmp sge i32 %12, 2048
  br i1 %13, label %14, label %15

14:                                               ; preds = %11
  store i32 38, ptr %2, align 4
  br label %16

15:                                               ; preds = %11
  store i32 0, ptr %2, align 4
  br label %16

16:                                               ; preds = %15, %14, %10, %6
  %17 = load i32, ptr %2, align 4
  ret i32 %17
}

; Function Attrs: nounwind uwtable
define internal i32 @bn_rsa_fips186_5_aux_prime_min_size(i32 noundef %0) #0 {
  %2 = alloca i32, align 4
  %3 = alloca i32, align 4
  store i32 %0, ptr %3, align 4, !tbaa !8
  %4 = load i32, ptr %3, align 4, !tbaa !8
  %5 = icmp sge i32 %4, 4096
  br i1 %5, label %6, label %7

6:                                                ; preds = %1
  store i32 201, ptr %2, align 4
  br label %16

7:                                                ; preds = %1
  %8 = load i32, ptr %3, align 4, !tbaa !8
  %9 = icmp sge i32 %8, 3072
  br i1 %9, label %10, label %11

10:                                               ; preds = %7
  store i32 171, ptr %2, align 4
  br label %16

11:                                               ; preds = %7
  %12 = load i32, ptr %3, align 4, !tbaa !8
  %13 = icmp sge i32 %12, 2048
  br i1 %13, label %14, label %15

14:                                               ; preds = %11
  store i32 141, ptr %2, align 4
  br label %16

15:                                               ; preds = %11
  store i32 0, ptr %2, align 4
  br label %16

16:                                               ; preds = %15, %14, %10, %6
  %17 = load i32, ptr %2, align 4
  ret i32 %17
}

; Function Attrs: nounwind uwtable
define i32 @ossl_bn_rsa_fips186_4_gen_prob_primes(ptr noundef %0, ptr noundef %1, ptr noundef %2, ptr noundef %3, ptr noundef %4, ptr noundef %5, ptr noundef %6, i32 noundef %7, ptr noundef %8, ptr noundef %9, ptr noundef %10) #0 {
  %12 = alloca i32, align 4
  %13 = alloca ptr, align 8
  %14 = alloca ptr, align 8
  %15 = alloca ptr, align 8
  %16 = alloca ptr, align 8
  %17 = alloca ptr, align 8
  %18 = alloca ptr, align 8
  %19 = alloca ptr, align 8
  %20 = alloca i32, align 4
  %21 = alloca ptr, align 8
  %22 = alloca ptr, align 8
  %23 = alloca ptr, align 8
  %24 = alloca i32, align 4
  %25 = alloca ptr, align 8
  %26 = alloca ptr, align 8
  %27 = alloca ptr, align 8
  %28 = alloca ptr, align 8
  %29 = alloca i32, align 4
  %30 = alloca i32, align 4
  %31 = alloca i32, align 4
  store ptr %0, ptr %13, align 8, !tbaa !3
  store ptr %1, ptr %14, align 8, !tbaa !3
  store ptr %2, ptr %15, align 8, !tbaa !3
  store ptr %3, ptr %16, align 8, !tbaa !3
  store ptr %4, ptr %17, align 8, !tbaa !3
  store ptr %5, ptr %18, align 8, !tbaa !3
  store ptr %6, ptr %19, align 8, !tbaa !3
  store i32 %7, ptr %20, align 4, !tbaa !8
  store ptr %8, ptr %21, align 8, !tbaa !3
  store ptr %9, ptr %22, align 8, !tbaa !10
  store ptr %10, ptr %23, align 8, !tbaa !12
  call void @llvm.lifetime.start.p0(i64 4, ptr %24) #3
  store i32 0, ptr %24, align 4, !tbaa !8
  call void @llvm.lifetime.start.p0(i64 8, ptr %25) #3
  store ptr null, ptr %25, align 8, !tbaa !3
  call void @llvm.lifetime.start.p0(i64 8, ptr %26) #3
  store ptr null, ptr %26, align 8, !tbaa !3
  call void @llvm.lifetime.start.p0(i64 8, ptr %27) #3
  store ptr null, ptr %27, align 8, !tbaa !3
  call void @llvm.lifetime.start.p0(i64 8, ptr %28) #3
  store ptr null, ptr %28, align 8, !tbaa !3
  call void @llvm.lifetime.start.p0(i64 4, ptr %29) #3
  call void @llvm.lifetime.start.p0(i64 4, ptr %30) #3
  %32 = load ptr, ptr %13, align 8, !tbaa !3
  %33 = icmp eq ptr %32, null
  br i1 %33, label %37, label %34

34:                                               ; preds = %11
  %35 = load ptr, ptr %14, align 8, !tbaa !3
  %36 = icmp eq ptr %35, null
  br i1 %36, label %37, label %38

37:                                               ; preds = %34, %11
  store i32 0, ptr %12, align 4
  store i32 1, ptr %31, align 4
  br label %182

38:                                               ; preds = %34
  %39 = load ptr, ptr %22, align 8, !tbaa !10
  call void @BN_CTX_start(ptr noundef %39)
  %40 = load ptr, ptr %15, align 8, !tbaa !3
  %41 = icmp ne ptr %40, null
  br i1 %41, label %42, label %44

42:                                               ; preds = %38
  %43 = load ptr, ptr %15, align 8, !tbaa !3
  br label %47

44:                                               ; preds = %38
  %45 = load ptr, ptr %22, align 8, !tbaa !10
  %46 = call ptr @BN_CTX_get(ptr noundef %45)
  br label %47

47:                                               ; preds = %44, %42
  %48 = phi ptr [ %43, %42 ], [ %46, %44 ]
  store ptr %48, ptr %25, align 8, !tbaa !3
  %49 = load ptr, ptr %16, align 8, !tbaa !3
  %50 = icmp ne ptr %49, null
  br i1 %50, label %51, label %53

51:                                               ; preds = %47
  %52 = load ptr, ptr %16, align 8, !tbaa !3
  br label %56

53:                                               ; preds = %47
  %54 = load ptr, ptr %22, align 8, !tbaa !10
  %55 = call ptr @BN_CTX_get(ptr noundef %54)
  br label %56

56:                                               ; preds = %53, %51
  %57 = phi ptr [ %52, %51 ], [ %55, %53 ]
  store ptr %57, ptr %26, align 8, !tbaa !3
  %58 = load ptr, ptr %18, align 8, !tbaa !3
  %59 = icmp ne ptr %58, null
  br i1 %59, label %60, label %62

60:                                               ; preds = %56
  %61 = load ptr, ptr %18, align 8, !tbaa !3
  br label %65

62:                                               ; preds = %56
  %63 = load ptr, ptr %22, align 8, !tbaa !10
  %64 = call ptr @BN_CTX_get(ptr noundef %63)
  br label %65

65:                                               ; preds = %62, %60
  %66 = phi ptr [ %61, %60 ], [ %64, %62 ]
  store ptr %66, ptr %27, align 8, !tbaa !3
  %67 = load ptr, ptr %19, align 8, !tbaa !3
  %68 = icmp ne ptr %67, null
  br i1 %68, label %69, label %71

69:                                               ; preds = %65
  %70 = load ptr, ptr %19, align 8, !tbaa !3
  br label %74

71:                                               ; preds = %65
  %72 = load ptr, ptr %22, align 8, !tbaa !10
  %73 = call ptr @BN_CTX_get(ptr noundef %72)
  br label %74

74:                                               ; preds = %71, %69
  %75 = phi ptr [ %70, %69 ], [ %73, %71 ]
  store ptr %75, ptr %28, align 8, !tbaa !3
  %76 = load ptr, ptr %25, align 8, !tbaa !3
  %77 = icmp eq ptr %76, null
  br i1 %77, label %87, label %78

78:                                               ; preds = %74
  %79 = load ptr, ptr %26, align 8, !tbaa !3
  %80 = icmp eq ptr %79, null
  br i1 %80, label %87, label %81

81:                                               ; preds = %78
  %82 = load ptr, ptr %27, align 8, !tbaa !3
  %83 = icmp eq ptr %82, null
  br i1 %83, label %87, label %84

84:                                               ; preds = %81
  %85 = load ptr, ptr %28, align 8, !tbaa !3
  %86 = icmp eq ptr %85, null
  br i1 %86, label %87, label %88

87:                                               ; preds = %84, %81, %78, %74
  br label %159

88:                                               ; preds = %84
  %89 = load i32, ptr %20, align 4, !tbaa !8
  %90 = call i32 @bn_rsa_fips186_5_aux_prime_min_size(i32 noundef %89)
  store i32 %90, ptr %29, align 4, !tbaa !8
  %91 = load i32, ptr %29, align 4, !tbaa !8
  %92 = icmp eq i32 %91, 0
  br i1 %92, label %93, label %94

93:                                               ; preds = %88
  br label %159

94:                                               ; preds = %88
  %95 = load i32, ptr %20, align 4, !tbaa !8
  %96 = call i32 @bn_rsa_fips186_5_aux_prime_MR_rounds(i32 noundef %95)
  store i32 %96, ptr %30, align 4, !tbaa !8
  %97 = load ptr, ptr %18, align 8, !tbaa !3
  %98 = icmp eq ptr %97, null
  br i1 %98, label %99, label %107

99:                                               ; preds = %94
  %100 = load ptr, ptr %27, align 8, !tbaa !3
  %101 = load i32, ptr %29, align 4, !tbaa !8
  %102 = load ptr, ptr %22, align 8, !tbaa !10
  %103 = call i32 @BN_priv_rand_ex(ptr noundef %100, i32 noundef %101, i32 noundef 0, i32 noundef 1, i32 noundef 0, ptr noundef %102)
  %104 = icmp ne i32 %103, 0
  br i1 %104, label %106, label %105

105:                                              ; preds = %99
  br label %159

106:                                              ; preds = %99
  br label %107

107:                                              ; preds = %106, %94
  %108 = load ptr, ptr %19, align 8, !tbaa !3
  %109 = icmp eq ptr %108, null
  br i1 %109, label %110, label %118

110:                                              ; preds = %107
  %111 = load ptr, ptr %28, align 8, !tbaa !3
  %112 = load i32, ptr %29, align 4, !tbaa !8
  %113 = load ptr, ptr %22, align 8, !tbaa !10
  %114 = call i32 @BN_priv_rand_ex(ptr noundef %111, i32 noundef %112, i32 noundef 0, i32 noundef 1, i32 noundef 0, ptr noundef %113)
  %115 = icmp ne i32 %114, 0
  br i1 %115, label %117, label %116

116:                                              ; preds = %110
  br label %159

117:                                              ; preds = %110
  br label %118

118:                                              ; preds = %117, %107
  %119 = load ptr, ptr %27, align 8, !tbaa !3
  %120 = load ptr, ptr %25, align 8, !tbaa !3
  %121 = load ptr, ptr %22, align 8, !tbaa !10
  %122 = load i32, ptr %30, align 4, !tbaa !8
  %123 = load ptr, ptr %23, align 8, !tbaa !12
  %124 = call i32 @bn_rsa_fips186_4_find_aux_prob_prime(ptr noundef %119, ptr noundef %120, ptr noundef %121, i32 noundef %122, ptr noundef %123)
  %125 = icmp ne i32 %124, 0
  br i1 %125, label %126, label %134

126:                                              ; preds = %118
  %127 = load ptr, ptr %28, align 8, !tbaa !3
  %128 = load ptr, ptr %26, align 8, !tbaa !3
  %129 = load ptr, ptr %22, align 8, !tbaa !10
  %130 = load i32, ptr %30, align 4, !tbaa !8
  %131 = load ptr, ptr %23, align 8, !tbaa !12
  %132 = call i32 @bn_rsa_fips186_4_find_aux_prob_prime(ptr noundef %127, ptr noundef %128, ptr noundef %129, i32 noundef %130, ptr noundef %131)
  %133 = icmp ne i32 %132, 0
  br i1 %133, label %135, label %134

134:                                              ; preds = %126, %118
  br label %159

135:                                              ; preds = %126
  %136 = load ptr, ptr %25, align 8, !tbaa !3
  %137 = call i32 @BN_num_bits(ptr noundef %136)
  %138 = load ptr, ptr %26, align 8, !tbaa !3
  %139 = call i32 @BN_num_bits(ptr noundef %138)
  %140 = add nsw i32 %137, %139
  %141 = load i32, ptr %20, align 4, !tbaa !8
  %142 = call i32 @bn_rsa_fips186_5_aux_prime_max_sum_size_for_prob_primes(i32 noundef %141)
  %143 = icmp sge i32 %140, %142
  br i1 %143, label %144, label %145

144:                                              ; preds = %135
  br label %159

145:                                              ; preds = %135
  %146 = load ptr, ptr %13, align 8, !tbaa !3
  %147 = load ptr, ptr %14, align 8, !tbaa !3
  %148 = load ptr, ptr %17, align 8, !tbaa !3
  %149 = load ptr, ptr %25, align 8, !tbaa !3
  %150 = load ptr, ptr %26, align 8, !tbaa !3
  %151 = load i32, ptr %20, align 4, !tbaa !8
  %152 = load ptr, ptr %21, align 8, !tbaa !3
  %153 = load ptr, ptr %22, align 8, !tbaa !10
  %154 = load ptr, ptr %23, align 8, !tbaa !12
  %155 = call i32 @ossl_bn_rsa_fips186_4_derive_prime(ptr noundef %146, ptr noundef %147, ptr noundef %148, ptr noundef %149, ptr noundef %150, i32 noundef %151, ptr noundef %152, ptr noundef %153, ptr noundef %154)
  %156 = icmp ne i32 %155, 0
  br i1 %156, label %158, label %157

157:                                              ; preds = %145
  br label %159

158:                                              ; preds = %145
  store i32 1, ptr %24, align 4, !tbaa !8
  br label %159

159:                                              ; preds = %158, %157, %144, %134, %116, %105, %93, %87
  %160 = load ptr, ptr %15, align 8, !tbaa !3
  %161 = icmp eq ptr %160, null
  br i1 %161, label %162, label %164

162:                                              ; preds = %159
  %163 = load ptr, ptr %25, align 8, !tbaa !3
  call void @BN_clear(ptr noundef %163)
  br label %164

164:                                              ; preds = %162, %159
  %165 = load ptr, ptr %16, align 8, !tbaa !3
  %166 = icmp eq ptr %165, null
  br i1 %166, label %167, label %169

167:                                              ; preds = %164
  %168 = load ptr, ptr %26, align 8, !tbaa !3
  call void @BN_clear(ptr noundef %168)
  br label %169

169:                                              ; preds = %167, %164
  %170 = load ptr, ptr %18, align 8, !tbaa !3
  %171 = icmp eq ptr %170, null
  br i1 %171, label %172, label %174

172:                                              ; preds = %169
  %173 = load ptr, ptr %27, align 8, !tbaa !3
  call void @BN_clear(ptr noundef %173)
  br label %174

174:                                              ; preds = %172, %169
  %175 = load ptr, ptr %19, align 8, !tbaa !3
  %176 = icmp eq ptr %175, null
  br i1 %176, label %177, label %179

177:                                              ; preds = %174
  %178 = load ptr, ptr %28, align 8, !tbaa !3
  call void @BN_clear(ptr noundef %178)
  br label %179

179:                                              ; preds = %177, %174
  %180 = load ptr, ptr %22, align 8, !tbaa !10
  call void @BN_CTX_end(ptr noundef %180)
  %181 = load i32, ptr %24, align 4, !tbaa !8
  store i32 %181, ptr %12, align 4
  store i32 1, ptr %31, align 4
  br label %182

182:                                              ; preds = %179, %37
  call void @llvm.lifetime.end.p0(i64 4, ptr %30) #3
  call void @llvm.lifetime.end.p0(i64 4, ptr %29) #3
  call void @llvm.lifetime.end.p0(i64 8, ptr %28) #3
  call void @llvm.lifetime.end.p0(i64 8, ptr %27) #3
  call void @llvm.lifetime.end.p0(i64 8, ptr %26) #3
  call void @llvm.lifetime.end.p0(i64 8, ptr %25) #3
  call void @llvm.lifetime.end.p0(i64 4, ptr %24) #3
  %183 = load i32, ptr %12, align 4
  ret i32 %183
}