; Function Attrs: nounwind uwtable
define range(i32 0, 2) i32 @ossl_bn_rsa_fips186_4_gen_prob_primes(ptr noundef %0, ptr noundef %1, ptr noundef %2, ptr noundef %3, ptr noundef %4, ptr noundef %5, ptr noundef %6, i32 noundef %7, ptr noundef %8, ptr noundef %9, ptr noundef %10) local_unnamed_addr #0 {
  %12 = icmp eq ptr %0, null
  %13 = icmp eq ptr %1, null
  %or.cond = or i1 %12, %13
  br i1 %or.cond, label %64, label %14

14:                                               ; preds = %11
  tail call void @BN_CTX_start(ptr noundef %9) #3
  %.not = icmp eq ptr %2, null
  br i1 %.not, label %15, label %17

15:                                               ; preds = %14
  %16 = tail call ptr @BN_CTX_get(ptr noundef %9) #3
  br label %17

17:                                               ; preds = %14, %15
  %18 = phi ptr [ %16, %15 ], [ %2, %14 ]
  %.not81 = icmp eq ptr %3, null
  br i1 %.not81, label %19, label %21

19:                                               ; preds = %17
  %20 = tail call ptr @BN_CTX_get(ptr noundef %9) #3
  br label %21

21:                                               ; preds = %17, %19
  %22 = phi ptr [ %20, %19 ], [ %3, %17 ]
  %.not82 = icmp eq ptr %5, null
  br i1 %.not82, label %23, label %25

23:                                               ; preds = %21
  %24 = tail call ptr @BN_CTX_get(ptr noundef %9) #3
  br label %25

25:                                               ; preds = %21, %23
  %26 = phi ptr [ %24, %23 ], [ %5, %21 ]
  %.not83 = icmp eq ptr %6, null
  br i1 %.not83, label %27, label %29

27:                                               ; preds = %25
  %28 = tail call ptr @BN_CTX_get(ptr noundef %9) #3
  br label %29

29:                                               ; preds = %25, %27
  %30 = phi ptr [ %28, %27 ], [ %6, %25 ]
  %31 = icmp eq ptr %18, null
  %32 = icmp eq ptr %22, null
  %or.cond3 = select i1 %31, i1 true, i1 %32
  %33 = icmp eq ptr %26, null
  %or.cond5 = select i1 %or.cond3, i1 true, i1 %33
  %34 = icmp eq ptr %30, null
  %or.cond7 = select i1 %or.cond5, i1 true, i1 %34
  br i1 %or.cond7, label %bn_rsa_fips186_5_aux_prime_min_size.exit, label %35

35:                                               ; preds = %29
  %36 = icmp sgt i32 %7, 4095
  br i1 %36, label %bn_rsa_fips186_5_aux_prime_MR_rounds.exit, label %37

37:                                               ; preds = %35
  %38 = icmp sgt i32 %7, 3071
  br i1 %38, label %bn_rsa_fips186_5_aux_prime_MR_rounds.exit, label %39

39:                                               ; preds = %37
  %40 = icmp sgt i32 %7, 2047
  br i1 %40, label %bn_rsa_fips186_5_aux_prime_MR_rounds.exit, label %bn_rsa_fips186_5_aux_prime_min_size.exit

bn_rsa_fips186_5_aux_prime_MR_rounds.exit:        ; preds = %39, %37, %35
  %.0.i.ph98 = phi i32 [ 201, %35 ], [ 171, %37 ], [ 141, %39 ]
  %.0.i91 = phi i32 [ 44, %35 ], [ 41, %37 ], [ 38, %39 ]
  br i1 %.not82, label %41, label %43

41:                                               ; preds = %bn_rsa_fips186_5_aux_prime_MR_rounds.exit
  %42 = tail call i32 @BN_priv_rand_ex(ptr noundef nonnull %26, i32 noundef %.0.i.ph98, i32 noundef 0, i32 noundef 1, i32 noundef 0, ptr noundef %9) #3
  %.not84 = icmp eq i32 %42, 0
  br i1 %.not84, label %bn_rsa_fips186_5_aux_prime_min_size.exit, label %43

43:                                               ; preds = %41, %bn_rsa_fips186_5_aux_prime_MR_rounds.exit
  br i1 %.not83, label %44, label %46

44:                                               ; preds = %43
  %45 = tail call i32 @BN_priv_rand_ex(ptr noundef nonnull %30, i32 noundef %.0.i.ph98, i32 noundef 0, i32 noundef 1, i32 noundef 0, ptr noundef %9) #3
  %.not85 = icmp eq i32 %45, 0
  br i1 %.not85, label %bn_rsa_fips186_5_aux_prime_min_size.exit, label %46

46:                                               ; preds = %44, %43
  %47 = tail call fastcc i32 @bn_rsa_fips186_4_find_aux_prob_prime(ptr noundef %26, ptr noundef %18, ptr noundef %9, i32 noundef %.0.i91, ptr noundef %10)
  %.not86 = icmp eq i32 %47, 0
  br i1 %.not86, label %bn_rsa_fips186_5_aux_prime_min_size.exit, label %48

48:                                               ; preds = %46
  %49 = tail call fastcc i32 @bn_rsa_fips186_4_find_aux_prob_prime(ptr noundef %30, ptr noundef %22, ptr noundef %9, i32 noundef %.0.i91, ptr noundef %10)
  %.not87 = icmp eq i32 %49, 0
  br i1 %.not87, label %bn_rsa_fips186_5_aux_prime_min_size.exit, label %bn_rsa_fips186_5_aux_prime_max_sum_size_for_prob_primes.exit

bn_rsa_fips186_5_aux_prime_max_sum_size_for_prob_primes.exit: ; preds = %48
  %50 = tail call i32 @BN_num_bits(ptr noundef nonnull %18) #3
  %51 = tail call i32 @BN_num_bits(ptr noundef nonnull %22) #3
  %52 = add nsw i32 %51, %50
  %53 = icmp samesign ugt i32 %7, 3071
  %spec.select101 = select i1 %53, i32 1518, i32 1007
  %.0.i93 = select i1 %36, i32 2030, i32 %spec.select101
  %.not88 = icmp slt i32 %52, %.0.i93
  br i1 %.not88, label %54, label %bn_rsa_fips186_5_aux_prime_min_size.exit

54:                                               ; preds = %bn_rsa_fips186_5_aux_prime_max_sum_size_for_prob_primes.exit
  %55 = tail call i32 @ossl_bn_rsa_fips186_4_derive_prime(ptr noundef nonnull %0, ptr noundef nonnull %1, ptr noundef %4, ptr noundef nonnull %18, ptr noundef nonnull %22, i32 noundef %7, ptr noundef %8, ptr noundef %9, ptr noundef %10)
  %.not89 = icmp ne i32 %55, 0
  %spec.select = zext i1 %.not89 to i32
  br label %bn_rsa_fips186_5_aux_prime_min_size.exit

bn_rsa_fips186_5_aux_prime_min_size.exit:         ; preds = %39, %54, %bn_rsa_fips186_5_aux_prime_max_sum_size_for_prob_primes.exit, %46, %48, %44, %41, %29
  %.069 = phi i32 [ 0, %29 ], [ 0, %bn_rsa_fips186_5_aux_prime_max_sum_size_for_prob_primes.exit ], [ 0, %48 ], [ 0, %46 ], [ 0, %44 ], [ 0, %41 ], [ %spec.select, %54 ], [ 0, %39 ]
  br i1 %.not, label %56, label %57

56:                                               ; preds = %bn_rsa_fips186_5_aux_prime_min_size.exit
  tail call void @BN_clear(ptr noundef %18) #3
  br label %57

57:                                               ; preds = %56, %bn_rsa_fips186_5_aux_prime_min_size.exit
  br i1 %.not81, label %58, label %59

58:                                               ; preds = %57
  tail call void @BN_clear(ptr noundef %22) #3
  br label %59

59:                                               ; preds = %58, %57
  br i1 %.not82, label %60, label %61

60:                                               ; preds = %59
  tail call void @BN_clear(ptr noundef %26) #3
  br label %61

61:                                               ; preds = %60, %59
  br i1 %.not83, label %62, label %63

62:                                               ; preds = %61
  tail call void @BN_clear(ptr noundef %30) #3
  br label %63

63:                                               ; preds = %62, %61
  tail call void @BN_CTX_end(ptr noundef %9) #3
  br label %64

64:                                               ; preds = %11, %63
  %.0 = phi i32 [ %.069, %63 ], [ 0, %11 ]
  ret i32 %.0
}